; Function Attrs: mustprogress nofree nounwind sspstrong willreturn memory(write, argmem: none, inaccessiblemem: readwrite) uwtable
define dso_local noalias noundef ptr @onig_node_new_enclose(i32 noundef %0) local_unnamed_addr #13 {
  %2 = tail call noalias noundef dereferenceable_or_null(56) ptr @malloc(i64 noundef 56) #26
  %3 = icmp eq ptr %2, null
  br i1 %3, label %node_new_enclose.exit, label %4

4:                                                ; preds = %1
  store i32 6, ptr %2, align 1
  %5 = getelementptr inbounds nuw i8, ptr %2, i64 8
  store i32 %0, ptr %5, align 8, !tbaa !13
  %6 = getelementptr inbounds nuw i8, ptr %2, i64 4
  store i32 0, ptr %6, align 4, !tbaa !13
  %7 = getelementptr inbounds nuw i8, ptr %2, i64 12
  store i32 0, ptr %7, align 4, !tbaa !13
  %8 = getelementptr inbounds nuw i8, ptr %2, i64 16
  store i32 0, ptr %8, align 8, !tbaa !13
  %9 = getelementptr inbounds nuw i8, ptr %2, i64 24
  store ptr null, ptr %9, align 8, !tbaa !13
  %10 = getelementptr inbounds nuw i8, ptr %2, i64 20
  store i32 -1, ptr %10, align 4, !tbaa !13
  %11 = getelementptr inbounds nuw i8, ptr %2, i64 52
  store i32 0, ptr %11, align 4, !tbaa !13
  br label %node_new_enclose.exit

node_new_enclose.exit:                            ; preds = %1, %4
  ret ptr %2
}